target datalayout = "e-m:e-p270:32:32-p271:32:32-p272:64:64-i64:64-i128:128-f80:128-n8:16:32:64-S128"
target triple = "x86_64-pc-linux-gnu"

%struct.JNINativeInterface_ = type { ptr, ptr, ptr, ptr, ptr, ptr, ptr, ptr, ptr, ptr, ptr, ptr, ptr, ptr, ptr, ptr, ptr, ptr, ptr, ptr, ptr, ptr, ptr, ptr, ptr, ptr, ptr, ptr, ptr, ptr, ptr, ptr, ptr, ptr, ptr, ptr, ptr, ptr, ptr, ptr, ptr, ptr, ptr, ptr, ptr, ptr, ptr, ptr, ptr, ptr, ptr, ptr, ptr, ptr, ptr, ptr, ptr, ptr, ptr, ptr, ptr, ptr, ptr, ptr, ptr, ptr, ptr, ptr, ptr, ptr, ptr, ptr, ptr, ptr, ptr, ptr, ptr, ptr, ptr, ptr, ptr, ptr, ptr, ptr, ptr, ptr, ptr, ptr, ptr, ptr, ptr, ptr, ptr, ptr, ptr, ptr, ptr, ptr, ptr, ptr, ptr, ptr, ptr, ptr, ptr, ptr, ptr, ptr, ptr, ptr, ptr, ptr, ptr, ptr, ptr, ptr, ptr, ptr, ptr, ptr, ptr, ptr, ptr, ptr, ptr, ptr, ptr, ptr, ptr, ptr, ptr, ptr, ptr, ptr, ptr, ptr, ptr, ptr, ptr, ptr, ptr, ptr, ptr, ptr, ptr, ptr, ptr, ptr, ptr, ptr, ptr, ptr, ptr, ptr, ptr, ptr, ptr, ptr, ptr, ptr, ptr, ptr, ptr, ptr, ptr, ptr, ptr, ptr, ptr, ptr, ptr, ptr, ptr, ptr, ptr, ptr, ptr, ptr, ptr, ptr, ptr, ptr, ptr, ptr, ptr, ptr, ptr, ptr, ptr, ptr, ptr, ptr, ptr, ptr, ptr, ptr, ptr, ptr, ptr, ptr, ptr, ptr, ptr, ptr, ptr, ptr, ptr, ptr, ptr, ptr, ptr, ptr, ptr, ptr, ptr, ptr, ptr, ptr, ptr, ptr, ptr, ptr, ptr, ptr, ptr, ptr, ptr, ptr, ptr, ptr, ptr, ptr, ptr, ptr, ptr }
%struct.sctp_shutdown_event = type { i16, i16, i32, i32 }

@src_valueID = internal global ptr null, align 8
@src_typeID = internal global ptr null, align 8
@ss_class = internal global ptr null, align 8
@ss_ctrID = internal global ptr null, align 8

; Function Attrs: nounwind uwtable
define hidden void @handleShutdown(ptr noundef %0, ptr noundef %1, ptr noundef %2) #0 {
  %4 = alloca ptr, align 8
  %5 = alloca ptr, align 8
  %6 = alloca ptr, align 8
  %7 = alloca ptr, align 8
  store ptr %0, ptr %4, align 8
  store ptr %1, ptr %5, align 8
  store ptr %2, ptr %6, align 8
  %8 = load ptr, ptr %4, align 8
  %9 = load ptr, ptr %8, align 8
  %10 = getelementptr inbounds %struct.JNINativeInterface_, ptr %9, i32 0, i32 28
  %11 = load ptr, ptr %10, align 8
  %12 = load ptr, ptr %4, align 8
  %13 = load ptr, ptr @ss_class, align 8
  %14 = load ptr, ptr @ss_ctrID, align 8
  %15 = load ptr, ptr %6, align 8
  %16 = getelementptr inbounds %struct.sctp_shutdown_event, ptr %15, i32 0, i32 3
  %17 = load i32, ptr %16, align 4
  %18 = call ptr (ptr, ptr, ptr, ...) %11(ptr noundef %12, ptr noundef %13, ptr noundef %14, i32 noundef %17)
  store ptr %18, ptr %7, align 8
  br label %19

19:                                               ; preds = %3
  %20 = load ptr, ptr %7, align 8
  %21 = icmp eq ptr %20, null
  br i1 %21, label %22, label %23

22:                                               ; preds = %19
  br label %40

23:                                               ; preds = %19
  br label %24

24:                                               ; preds = %23
  %25 = load ptr, ptr %4, align 8
  %26 = load ptr, ptr %25, align 8
  %27 = getelementptr inbounds %struct.JNINativeInterface_, ptr %26, i32 0, i32 104
  %28 = load ptr, ptr %27, align 8
  %29 = load ptr, ptr %4, align 8
  %30 = load ptr, ptr %5, align 8
  %31 = load ptr, ptr @src_valueID, align 8
  %32 = load ptr, ptr %7, align 8
  call void %28(ptr noundef %29, ptr noundef %30, ptr noundef %31, ptr noundef %32)
  %33 = load ptr, ptr %4, align 8
  %34 = load ptr, ptr %33, align 8
  %35 = getelementptr inbounds %struct.JNINativeInterface_, ptr %34, i32 0, i32 109
  %36 = load ptr, ptr %35, align 8
  %37 = load ptr, ptr %4, align 8
  %38 = load ptr, ptr %5, align 8
  %39 = load ptr, ptr @src_typeID, align 8
  call void %36(ptr noundef %37, ptr noundef %38, ptr noundef %39, i32 noundef 5)
  br label %40

40:                                               ; preds = %24, %22
  ret void
}