; Function Attrs: nounwind uwtable
define hidden void @handleShutdown(ptr noundef %0, ptr noundef %1, ptr nocapture noundef readonly %2) local_unnamed_addr #0 {
  %4 = load ptr, ptr %0, align 8
  %5 = getelementptr inbounds i8, ptr %4, i64 224
  %6 = load ptr, ptr %5, align 8
  %7 = load ptr, ptr @ss_class, align 8
  %8 = load ptr, ptr @ss_ctrID, align 8
  %9 = getelementptr inbounds i8, ptr %2, i64 8
  %10 = load i32, ptr %9, align 4
  %11 = tail call ptr (ptr, ptr, ptr, ...) %6(ptr noundef nonnull %0, ptr noundef %7, ptr noundef %8, i32 noundef %10) #11
  %12 = icmp eq ptr %11, null
  br i1 %12, label %22, label %13

13:                                               ; preds = %3
  %14 = load ptr, ptr %0, align 8
  %15 = getelementptr inbounds i8, ptr %14, i64 832
  %16 = load ptr, ptr %15, align 8
  %17 = load ptr, ptr @src_valueID, align 8
  tail call void %16(ptr noundef nonnull %0, ptr noundef %1, ptr noundef %17, ptr noundef nonnull %11) #11
  %18 = load ptr, ptr %0, align 8
  %19 = getelementptr inbounds i8, ptr %18, i64 872
  %20 = load ptr, ptr %19, align 8
  %21 = load ptr, ptr @src_typeID, align 8
  tail call void %20(ptr noundef nonnull %0, ptr noundef %1, ptr noundef %21, i32 noundef 5) #11
  br label %22

22:                                               ; preds = %3, %13
  ret void
}